; Function Attrs: inlinehint nounwind uwtable
define internal fastcc ptr @lean_array_get(ptr noundef %0, ptr noundef readonly captures(none) %1, ptr noundef %2) unnamed_addr #0 {
  %4 = ptrtoint ptr %2 to i64
  %5 = and i64 %4, 1
  %.not = icmp eq i64 %5, 0
  br i1 %.not, label %lean_array_uget.exit, label %6

6:                                                ; preds = %3
  %7 = lshr i64 %4, 1
  %8 = getelementptr i8, ptr %1, i64 8
  %.val = load i64, ptr %8, align 8, !tbaa !12
  %9 = icmp ult i64 %7, %.val
  br i1 %9, label %10, label %lean_array_uget.exit

10:                                               ; preds = %6
  %11 = ptrtoint ptr %0 to i64
  %12 = and i64 %11, 1
  %.not14 = icmp eq i64 %12, 0
  br i1 %.not14, label %13, label %lean_dec.exit

13:                                               ; preds = %10
  %14 = load i32, ptr %0, align 4, !tbaa !4
  %15 = icmp sgt i32 %14, 1
  br i1 %15, label %16, label %18, !prof !11

16:                                               ; preds = %13
  %17 = add nsw i32 %14, -1
  store i32 %17, ptr %0, align 4, !tbaa !4
  br label %lean_dec.exit

18:                                               ; preds = %13
  %.not.i = icmp eq i32 %14, 0
  br i1 %.not.i, label %lean_dec.exit, label %19

19:                                               ; preds = %18
  tail call void @lean_dec_ref_cold(ptr noundef nonnull %0) #5
  br label %lean_dec.exit

lean_dec.exit:                                    ; preds = %19, %18, %16, %10
  %20 = getelementptr inbounds nuw i8, ptr %1, i64 24
  %21 = getelementptr inbounds nuw [0 x ptr], ptr %20, i64 0, i64 %7
  %22 = load ptr, ptr %21, align 8, !tbaa !9
  %23 = ptrtoint ptr %22 to i64
  %24 = and i64 %23, 1
  %.not.i11 = icmp eq i64 %24, 0
  br i1 %.not.i11, label %25, label %lean_array_uget.exit.thread

25:                                               ; preds = %lean_dec.exit
  %.val.i.i = load i32, ptr %22, align 4, !tbaa !4
  %26 = icmp sgt i32 %.val.i.i, 0
  br i1 %26, label %27, label %29, !prof !11

27:                                               ; preds = %25
  %28 = add nuw i32 %.val.i.i, 1
  store i32 %28, ptr %22, align 4, !tbaa !4
  br label %lean_array_uget.exit.thread

29:                                               ; preds = %25
  %.not.i.i = icmp eq i32 %.val.i.i, 0
  br i1 %.not.i.i, label %lean_array_uget.exit.thread, label %30

30:                                               ; preds = %29
  tail call void @lean_inc_ref_cold(ptr noundef nonnull %22) #5
  br label %lean_array_uget.exit.thread

lean_array_uget.exit:                             ; preds = %6, %3
  %31 = tail call ptr @lean_array_get_panic(ptr noundef %0) #5
  br label %lean_array_uget.exit.thread

lean_array_uget.exit.thread:                      ; preds = %lean_dec.exit, %27, %29, %30, %lean_array_uget.exit
  %.1 = phi ptr [ %31, %lean_array_uget.exit ], [ %22, %30 ], [ %22, %29 ], [ %22, %27 ], [ %22, %lean_dec.exit ]
  ret ptr %.1
}